target datalayout = "e-m:e-p270:32:32-p271:32:32-p272:64:64-i64:64-i128:128-f80:128-n8:16:32:64-S128"
target triple = "x86_64-unknown-linux-gnu"

%"class.icu_75::SearchIterator" = type { %"class.icu_75::UObject", ptr, ptr, %"class.icu_75::UnicodeString" }
%"class.icu_75::UObject" = type { ptr }
%"class.icu_75::UnicodeString" = type { %"class.icu_75::Replaceable", %"union.icu_75::UnicodeString::StackBufferOrFields" }
%"class.icu_75::Replaceable" = type { %"class.icu_75::UObject" }
%"union.icu_75::UnicodeString::StackBufferOrFields" = type { %struct.anon.0, [32 x i8] }
%struct.anon.0 = type { i16, i32, i32, ptr }
%struct.USearch = type { ptr, i32, i8, i8, i16, ptr, ptr, i32, i32, i8, i8 }

; Function Attrs: mustprogress nounwind uwtable
define internal noundef signext i8 @_ZL9U_SUCCESS10UErrorCode(i32 noundef %code) #1 {
entry:
  %code.addr = alloca i32, align 4
  store i32 %code, ptr %code.addr, align 4
  %0 = load i32, ptr %code.addr, align 4
  %cmp = icmp sle i32 %0, 0
  %conv = zext i1 %cmp to i8
  ret i8 %conv
}

; Function Attrs: mustprogress uwtable
define void @_ZN6icu_7514SearchIterator12setAttributeE16USearchAttribute21USearchAttributeValueR10UErrorCode(ptr noundef nonnull align 8 dereferenceable(88) %this, i32 noundef %attribute, i32 noundef %value, ptr noundef nonnull align 4 dereferenceable(4) %status) #0 align 2 {
entry:
  %this.addr = alloca ptr, align 8
  %attribute.addr = alloca i32, align 4
  %value.addr = alloca i32, align 4
  %status.addr = alloca ptr, align 8
  store ptr %this, ptr %this.addr, align 8
  store i32 %attribute, ptr %attribute.addr, align 4
  store i32 %value, ptr %value.addr, align 4
  store ptr %status, ptr %status.addr, align 8
  %this1 = load ptr, ptr %this.addr, align 8
  %0 = load ptr, ptr %status.addr, align 8
  %1 = load i32, ptr %0, align 4
  %call = call noundef signext i8 @_ZL9U_SUCCESS10UErrorCode(i32 noundef %1)
  %tobool = icmp ne i8 %call, 0
  br i1 %tobool, label %if.then, label %if.end15

if.then:                                          ; preds = %entry
  %2 = load i32, ptr %attribute.addr, align 4
  switch i32 %2, label %sw.default [
    i32 0, label %sw.bb
    i32 1, label %sw.bb2
    i32 2, label %sw.bb7
  ]

sw.bb:                                            ; preds = %if.then
  %3 = load i32, ptr %value.addr, align 4
  %cmp = icmp eq i32 %3, 1
  %cond = select i1 %cmp, i1 true, i1 false
  %conv = zext i1 %cond to i8
  %m_search_ = getelementptr inbounds %"class.icu_75::SearchIterator", ptr %this1, i32 0, i32 1
  %4 = load ptr, ptr %m_search_, align 8
  %isOverlap = getelementptr inbounds %struct.USearch, ptr %4, i32 0, i32 2
  store i8 %conv, ptr %isOverlap, align 4
  br label %sw.epilog

sw.bb2:                                           ; preds = %if.then
  %5 = load i32, ptr %value.addr, align 4
  %cmp3 = icmp eq i32 %5, 1
  %cond4 = select i1 %cmp3, i1 true, i1 false
  %conv5 = zext i1 %cond4 to i8
  %m_search_6 = getelementptr inbounds %"class.icu_75::SearchIterator", ptr %this1, i32 0, i32 1
  %6 = load ptr, ptr %m_search_6, align 8
  %isCanonicalMatch = getelementptr inbounds %struct.USearch, ptr %6, i32 0, i32 3
  store i8 %conv5, ptr %isCanonicalMatch, align 1
  br label %sw.epilog

sw.bb7:                                           ; preds = %if.then
  %7 = load i32, ptr %value.addr, align 4
  %cmp8 = icmp eq i32 %7, 3
  br i1 %cmp8, label %if.then10, label %lor.lhs.false

lor.lhs.false:                                    ; preds = %sw.bb7
  %8 = load i32, ptr %value.addr, align 4
  %cmp9 = icmp eq i32 %8, 4
  br i1 %cmp9, label %if.then10, label %if.else

if.then10:                                        ; preds = %lor.lhs.false, %sw.bb7
  %9 = load i32, ptr %value.addr, align 4
  %conv11 = trunc i32 %9 to i16
  %m_search_12 = getelementptr inbounds %"class.icu_75::SearchIterator", ptr %this1, i32 0, i32 1
  %10 = load ptr, ptr %m_search_12, align 8
  %elementComparisonType = getelementptr inbounds %struct.USearch, ptr %10, i32 0, i32 4
  store i16 %conv11, ptr %elementComparisonType, align 2
  br label %if.end

if.else:                                          ; preds = %lor.lhs.false
  %m_search_13 = getelementptr inbounds %"class.icu_75::SearchIterator", ptr %this1, i32 0, i32 1
  %11 = load ptr, ptr %m_search_13, align 8
  %elementComparisonType14 = getelementptr inbounds %struct.USearch, ptr %11, i32 0, i32 4
  store i16 0, ptr %elementComparisonType14, align 2
  br label %if.end

if.end:                                           ; preds = %if.else, %if.then10
  br label %sw.epilog

sw.default:                                       ; preds = %if.then
  %12 = load ptr, ptr %status.addr, align 8
  store i32 1, ptr %12, align 4
  br label %sw.epilog

sw.epilog:                                        ; preds = %sw.default, %if.end, %sw.bb2, %sw.bb
  br label %if.end15

if.end15:                                         ; preds = %sw.epilog, %entry
  %13 = load i32, ptr %value.addr, align 4
  %cmp16 = icmp eq i32 %13, 5
  br i1 %cmp16, label %if.then17, label %if.end18

if.then17:                                        ; preds = %if.end15
  %14 = load ptr, ptr %status.addr, align 8
  store i32 1, ptr %14, align 4
  br label %if.end18

if.end18:                                         ; preds = %if.then17, %if.end15
  ret void
}