; Function Attrs: mustprogress nofree norecurse nosync nounwind willreturn memory(write, argmem: readwrite, inaccessiblemem: none) uwtable
define void @_ZN6icu_7514SearchIterator12setAttributeE16USearchAttribute21USearchAttributeValueR10UErrorCode(ptr nocapture noundef nonnull readonly align 8 dereferenceable(88) %this, i32 noundef %attribute, i32 noundef %value, ptr nocapture noundef nonnull align 4 dereferenceable(4) %status) local_unnamed_addr #8 align 2 {
entry:
  %0 = load i32, ptr %status, align 4
  %cmp.i = icmp sgt i32 %0, 0
  br i1 %cmp.i, label %if.end15, label %if.then

if.then:                                          ; preds = %entry
  switch i32 %attribute, label %sw.default [
    i32 0, label %sw.bb
    i32 1, label %sw.bb2
    i32 2, label %sw.bb7
  ]

sw.bb:                                            ; preds = %if.then
  %cmp = icmp eq i32 %value, 1
  %conv = zext i1 %cmp to i8
  %m_search_ = getelementptr inbounds i8, ptr %this, i64 8
  %1 = load ptr, ptr %m_search_, align 8
  %isOverlap = getelementptr inbounds i8, ptr %1, i64 12
  store i8 %conv, ptr %isOverlap, align 4
  br label %if.end15

sw.bb2:                                           ; preds = %if.then
  %cmp3 = icmp eq i32 %value, 1
  %conv5 = zext i1 %cmp3 to i8
  %m_search_6 = getelementptr inbounds i8, ptr %this, i64 8
  %2 = load ptr, ptr %m_search_6, align 8
  %isCanonicalMatch = getelementptr inbounds i8, ptr %2, i64 13
  store i8 %conv5, ptr %isCanonicalMatch, align 1
  br label %if.end15

sw.bb7:                                           ; preds = %if.then
  %3 = add i32 %value, -3
  %or.cond = icmp ult i32 %3, 2
  br i1 %or.cond, label %if.end15.thread, label %if.else

if.end15.thread:                                  ; preds = %sw.bb7
  %conv11 = trunc i32 %value to i16
  %m_search_12 = getelementptr inbounds i8, ptr %this, i64 8
  %4 = load ptr, ptr %m_search_12, align 8
  %elementComparisonType = getelementptr inbounds i8, ptr %4, i64 14
  store i16 %conv11, ptr %elementComparisonType, align 2
  br label %if.end18

if.else:                                          ; preds = %sw.bb7
  %m_search_13 = getelementptr inbounds i8, ptr %this, i64 8
  %5 = load ptr, ptr %m_search_13, align 8
  %elementComparisonType14 = getelementptr inbounds i8, ptr %5, i64 14
  store i16 0, ptr %elementComparisonType14, align 2
  br label %if.end15

sw.default:                                       ; preds = %if.then
  store i32 1, ptr %status, align 4
  br label %if.end15

if.end15:                                         ; preds = %sw.bb, %sw.bb2, %sw.default, %if.else, %entry
  %cmp16 = icmp eq i32 %value, 5
  br i1 %cmp16, label %if.then17, label %if.end18

if.then17:                                        ; preds = %if.end15
  store i32 1, ptr %status, align 4
  br label %if.end18

if.end18:                                         ; preds = %if.end15.thread, %if.then17, %if.end15
  ret void
}